; Function Attrs: nounwind uwtable
define dso_local i32 @compare_datums_simple(i64 noundef %0, i64 noundef %1, ptr noundef %2) local_unnamed_addr #0 {
ApplySortComparator.exit:
  %3 = getelementptr inbounds nuw i8, ptr %2, i64 24
  %4 = load ptr, ptr %3, align 8
  %5 = tail call i32 %4(i64 noundef %0, i64 noundef %1, ptr noundef %2) #10
  %6 = getelementptr inbounds nuw i8, ptr %2, i64 12
  %7 = load i8, ptr %6, align 4, !range !8, !noundef !9
  %8 = trunc nuw i8 %7 to i1
  %9 = icmp slt i32 %5, 0
  %10 = sub i32 0, %5
  %11 = select i1 %9, i32 1, i32 %10
  %.0.i = select i1 %8, i32 %11, i32 %5
  ret i32 %.0.i
}